target datalayout = "e-m:e-p270:32:32-p271:32:32-p272:64:64-i64:64-i128:128-f80:128-n8:16:32:64-S128"
target triple = "x86_64-pc-linux-gnu"

%"class.std::__cxx11::basic_string" = type { %"struct.std::__cxx11::basic_string<char>::_Alloc_hider", i64, %union.anon }
%"struct.std::__cxx11::basic_string<char>::_Alloc_hider" = type { ptr }
%union.anon = type { i64, [8 x i8] }
%"class.rocksdb::Slice" = type { ptr, i64 }
%"struct.rocksdb::BlockCacheTraceRecord" = type <{ i64, %"class.std::__cxx11::basic_string", i8, [7 x i8], i64, i64, %"class.std::__cxx11::basic_string", i32, [4 x i8], i64, i8, i8, i8, [5 x i8], i64, i8, [7 x i8], %"class.std::__cxx11::basic_string", i64, i64, i8, [7 x i8] }>

; Function Attrs: mustprogress nounwind uwtable
define available_externally noundef ptr @_ZNKSt7__cxx1112basic_stringIcSt11char_traitsIcESaIcEE7_M_dataEv(ptr noundef nonnull align 8 dereferenceable(32) %0) #4 align 2 {
  %2 = alloca ptr, align 8
  store ptr %0, ptr %2, align 8, !tbaa !30
  %3 = load ptr, ptr %2, align 8
  %4 = getelementptr inbounds nuw %"class.std::__cxx11::basic_string", ptr %3, i32 0, i32 0
  %5 = getelementptr inbounds nuw %"struct.std::__cxx11::basic_string<char>::_Alloc_hider", ptr %4, i32 0, i32 0
  %6 = load ptr, ptr %5, align 8, !tbaa !227
  ret ptr %6
}

; Function Attrs: mustprogress nounwind uwtable
define linkonce_odr void @_ZN7rocksdb5SliceC2EPKcm(ptr noundef nonnull align 8 dereferenceable(16) %0, ptr noundef %1, i64 noundef %2) unnamed_addr #4 comdat align 2 {
  %4 = alloca ptr, align 8
  %5 = alloca ptr, align 8
  %6 = alloca i64, align 8
  store ptr %0, ptr %4, align 8, !tbaa !10
  store ptr %1, ptr %5, align 8, !tbaa !13
  store i64 %2, ptr %6, align 8, !tbaa !4
  %7 = load ptr, ptr %4, align 8
  %8 = getelementptr inbounds nuw %"class.rocksdb::Slice", ptr %7, i32 0, i32 0
  %9 = load ptr, ptr %5, align 8, !tbaa !13
  store ptr %9, ptr %8, align 8, !tbaa !15
  %10 = getelementptr inbounds nuw %"class.rocksdb::Slice", ptr %7, i32 0, i32 1
  %11 = load i64, ptr %6, align 8, !tbaa !4
  store i64 %11, ptr %10, align 8, !tbaa !17
  ret void
}

; Function Attrs: mustprogress nounwind uwtable
define linkonce_odr noundef i64 @_ZNK7rocksdb5Slice4sizeEv(ptr noundef nonnull align 8 dereferenceable(16) %0) #4 comdat align 2 {
  %2 = alloca ptr, align 8
  store ptr %0, ptr %2, align 8, !tbaa !10
  %3 = load ptr, ptr %2, align 8
  %4 = getelementptr inbounds nuw %"class.rocksdb::Slice", ptr %3, i32 0, i32 1
  %5 = load i64, ptr %4, align 8, !tbaa !17
  ret i64 %5
}

; Function Attrs: mustprogress nounwind uwtable
define linkonce_odr noundef ptr @_ZNK7rocksdb5Slice4dataEv(ptr noundef nonnull align 8 dereferenceable(16) %0) #4 comdat align 2 {
  %2 = alloca ptr, align 8
  store ptr %0, ptr %2, align 8, !tbaa !10
  %3 = load ptr, ptr %2, align 8
  %4 = getelementptr inbounds nuw %"class.rocksdb::Slice", ptr %3, i32 0, i32 0
  %5 = load ptr, ptr %4, align 8, !tbaa !15
  ret ptr %5
}

; Function Attrs: mustprogress nounwind uwtable
define available_externally noundef i64 @_ZNKSt7__cxx1112basic_stringIcSt11char_traitsIcESaIcEE4sizeEv(ptr noundef nonnull align 8 dereferenceable(32) %0) #4 align 2 {
  %2 = alloca ptr, align 8
  store ptr %0, ptr %2, align 8, !tbaa !30
  %3 = load ptr, ptr %2, align 8
  %4 = getelementptr inbounds nuw %"class.std::__cxx11::basic_string", ptr %3, i32 0, i32 1
  %5 = load i64, ptr %4, align 8, !tbaa !65
  ret i64 %5
}

; Function Attrs: mustprogress nounwind uwtable
define available_externally noundef ptr @_ZNKSt7__cxx1112basic_stringIcSt11char_traitsIcESaIcEE4dataEv(ptr noundef nonnull align 8 dereferenceable(32) %0) #4 align 2 {
  %2 = alloca ptr, align 8
  store ptr %0, ptr %2, align 8, !tbaa !30
  %3 = load ptr, ptr %2, align 8
  %4 = call noundef ptr @_ZNKSt7__cxx1112basic_stringIcSt11char_traitsIcESaIcEE7_M_dataEv(ptr noundef nonnull align 8 dereferenceable(32) %3)
  ret ptr %4
}

; Function Attrs: inlinehint mustprogress uwtable
define linkonce_odr noundef zeroext i1 @_ZN7rocksdb11GetVarint64EPNS_5SliceEPm(ptr noundef %0, ptr noundef %1) #3 comdat {
  %3 = alloca i1, align 1
  %4 = alloca ptr, align 8
  %5 = alloca ptr, align 8
  %6 = alloca ptr, align 8
  %7 = alloca ptr, align 8
  %8 = alloca ptr, align 8
  %9 = alloca i32, align 4
  %10 = alloca %"class.rocksdb::Slice", align 8
  store ptr %0, ptr %4, align 8, !tbaa !10
  store ptr %1, ptr %5, align 8, !tbaa !70
  call void @llvm.lifetime.start.p0(i64 8, ptr %6) #5
  %11 = load ptr, ptr %4, align 8, !tbaa !10
  %12 = call noundef ptr @_ZNK7rocksdb5Slice4dataEv(ptr noundef nonnull align 8 dereferenceable(16) %11)
  store ptr %12, ptr %6, align 8, !tbaa !13
  call void @llvm.lifetime.start.p0(i64 8, ptr %7) #5
  %13 = load ptr, ptr %6, align 8, !tbaa !13
  %14 = load ptr, ptr %4, align 8, !tbaa !10
  %15 = call noundef i64 @_ZNK7rocksdb5Slice4sizeEv(ptr noundef nonnull align 8 dereferenceable(16) %14)
  %16 = getelementptr inbounds nuw i8, ptr %13, i64 %15
  store ptr %16, ptr %7, align 8, !tbaa !13
  call void @llvm.lifetime.start.p0(i64 8, ptr %8) #5
  %17 = load ptr, ptr %6, align 8, !tbaa !13
  %18 = load ptr, ptr %7, align 8, !tbaa !13
  %19 = load ptr, ptr %5, align 8, !tbaa !70
  %20 = call noundef ptr @_ZN7rocksdb14GetVarint64PtrEPKcS1_Pm(ptr noundef %17, ptr noundef %18, ptr noundef %19)
  store ptr %20, ptr %8, align 8, !tbaa !13
  %21 = load ptr, ptr %8, align 8, !tbaa !13
  %22 = icmp eq ptr %21, null
  br i1 %22, label %23, label %24

23:                                               ; preds = %2
  store i1 false, ptr %3, align 1
  store i32 1, ptr %9, align 4
  br label %32

24:                                               ; preds = %2
  call void @llvm.lifetime.start.p0(i64 16, ptr %10) #5
  %25 = load ptr, ptr %8, align 8, !tbaa !13
  %26 = load ptr, ptr %7, align 8, !tbaa !13
  %27 = load ptr, ptr %8, align 8, !tbaa !13
  %28 = ptrtoint ptr %26 to i64
  %29 = ptrtoint ptr %27 to i64
  %30 = sub i64 %28, %29
  call void @_ZN7rocksdb5SliceC2EPKcm(ptr noundef nonnull align 8 dereferenceable(16) %10, ptr noundef %25, i64 noundef %30)
  %31 = load ptr, ptr %4, align 8, !tbaa !10
  call void @llvm.memcpy.p0.p0.i64(ptr align 8 %31, ptr align 8 %10, i64 16, i1 false), !tbaa.struct !72
  call void @llvm.lifetime.end.p0(i64 16, ptr %10) #5
  store i1 true, ptr %3, align 1
  store i32 1, ptr %9, align 4
  br label %32

32:                                               ; preds = %24, %23
  call void @llvm.lifetime.end.p0(i64 8, ptr %8) #5
  call void @llvm.lifetime.end.p0(i64 8, ptr %7) #5
  call void @llvm.lifetime.end.p0(i64 8, ptr %6) #5
  %33 = load i1, ptr %3, align 1
  ret i1 %33
}

; Function Attrs: mustprogress nounwind uwtable
define linkonce_odr void @_ZN7rocksdb5SliceC2ERKNSt7__cxx1112basic_stringIcSt11char_traitsIcESaIcEEE(ptr noundef nonnull align 8 dereferenceable(16) %0, ptr noundef nonnull align 8 dereferenceable(32) %1) unnamed_addr #4 comdat align 2 {
  %3 = alloca ptr, align 8
  %4 = alloca ptr, align 8
  store ptr %0, ptr %3, align 8, !tbaa !10
  store ptr %1, ptr %4, align 8, !tbaa !30
  %5 = load ptr, ptr %3, align 8
  %6 = getelementptr inbounds nuw %"class.rocksdb::Slice", ptr %5, i32 0, i32 0
  %7 = load ptr, ptr %4, align 8, !tbaa !30
  %8 = call noundef ptr @_ZNKSt7__cxx1112basic_stringIcSt11char_traitsIcESaIcEE4dataEv(ptr noundef nonnull align 8 dereferenceable(32) %7) #5
  store ptr %8, ptr %6, align 8, !tbaa !15
  %9 = getelementptr inbounds nuw %"class.rocksdb::Slice", ptr %5, i32 0, i32 1
  %10 = load ptr, ptr %4, align 8, !tbaa !30
  %11 = call noundef i64 @_ZNKSt7__cxx1112basic_stringIcSt11char_traitsIcESaIcEE4sizeEv(ptr noundef nonnull align 8 dereferenceable(32) %10) #5
  store i64 %11, ptr %9, align 8, !tbaa !17
  ret void
}

; Function Attrs: mustprogress uwtable
define noundef i64 @_ZN7rocksdb21BlockCacheTraceHelper20GetBlockOffsetInFileERKNS_21BlockCacheTraceRecordE(ptr noundef nonnull align 8 dereferenceable(185) %0) #6 align 2 {
  %2 = alloca ptr, align 8
  %3 = alloca %"class.rocksdb::Slice", align 8
  %4 = alloca i64, align 8
  %5 = alloca i64, align 8
  %6 = alloca i32, align 4
  store ptr %0, ptr %2, align 8, !tbaa !56
  call void @llvm.lifetime.start.p0(i64 16, ptr %3) #5
  %7 = load ptr, ptr %2, align 8, !tbaa !56
  %8 = getelementptr inbounds nuw %"struct.rocksdb::BlockCacheTraceRecord", ptr %7, i32 0, i32 1
  call void @_ZN7rocksdb5SliceC2ERKNSt7__cxx1112basic_stringIcSt11char_traitsIcESaIcEEE(ptr noundef nonnull align 8 dereferenceable(16) %3, ptr noundef nonnull align 8 dereferenceable(32) %8)
  call void @llvm.lifetime.start.p0(i64 8, ptr %4) #5
  store i64 0, ptr %4, align 8, !tbaa !4
  br label %9

9:                                                ; preds = %18, %1
  br label %10

10:                                               ; preds = %9
  call void @llvm.lifetime.start.p0(i64 8, ptr %5) #5
  store i64 0, ptr %5, align 8, !tbaa !4
  %11 = call noundef zeroext i1 @_ZN7rocksdb11GetVarint64EPNS_5SliceEPm(ptr noundef %3, ptr noundef %5)
  br i1 %11, label %12, label %14

12:                                               ; preds = %10
  %13 = load i64, ptr %5, align 8, !tbaa !4
  store i64 %13, ptr %4, align 8, !tbaa !4
  br label %15

14:                                               ; preds = %10
  store i32 3, ptr %6, align 4
  br label %16

15:                                               ; preds = %12
  store i32 0, ptr %6, align 4
  br label %16

16:                                               ; preds = %15, %14
  call void @llvm.lifetime.end.p0(i64 8, ptr %5) #5
  %17 = load i32, ptr %6, align 4
  switch i32 %17, label %21 [
    i32 0, label %18
    i32 3, label %19
  ]

18:                                               ; preds = %16
  br label %9, !llvm.loop !68

19:                                               ; preds = %16
  %20 = load i64, ptr %4, align 8, !tbaa !4
  store i32 1, ptr %6, align 4
  call void @llvm.lifetime.end.p0(i64 8, ptr %4) #5
  call void @llvm.lifetime.end.p0(i64 16, ptr %3) #5
  ret i64 %20

21:                                               ; preds = %16
  unreachable
}