; Function Attrs: mustprogress uwtable
define noundef i64 @_ZN7rocksdb21BlockCacheTraceHelper20GetBlockOffsetInFileERKNS_21BlockCacheTraceRecordE(ptr noundef nonnull readonly align 8 captures(none) dereferenceable(185) %0) local_unnamed_addr #5 align 2 {
  %2 = alloca i64, align 8
  %3 = getelementptr inbounds nuw i8, ptr %0, i64 8
  %4 = load ptr, ptr %3, align 8, !tbaa !11
  %5 = getelementptr inbounds nuw i8, ptr %0, i64 16
  %6 = load i64, ptr %5, align 8, !tbaa !16
  call void @llvm.lifetime.start.p0(i64 8, ptr nonnull %2) #28
  store i64 0, ptr %2, align 8, !tbaa !38
  %7 = getelementptr inbounds nuw i8, ptr %4, i64 %6
  %8 = call noundef ptr @_ZN7rocksdb14GetVarint64PtrEPKcS1_Pm(ptr noundef %4, ptr noundef %7, ptr noundef nonnull %2)
  %.not7 = icmp eq ptr %8, null
  br i1 %.not7, label %._crit_edge, label %_ZN7rocksdb11GetVarint64EPNS_5SliceEPm.exit.preheader

_ZN7rocksdb11GetVarint64EPNS_5SliceEPm.exit.preheader: ; preds = %1
  %9 = ptrtoint ptr %7 to i64
  br label %_ZN7rocksdb11GetVarint64EPNS_5SliceEPm.exit

_ZN7rocksdb11GetVarint64EPNS_5SliceEPm.exit:      ; preds = %_ZN7rocksdb11GetVarint64EPNS_5SliceEPm.exit.preheader, %_ZN7rocksdb11GetVarint64EPNS_5SliceEPm.exit
  %10 = phi ptr [ %15, %_ZN7rocksdb11GetVarint64EPNS_5SliceEPm.exit ], [ %8, %_ZN7rocksdb11GetVarint64EPNS_5SliceEPm.exit.preheader ]
  %11 = ptrtoint ptr %10 to i64
  %12 = sub i64 %9, %11
  %13 = load i64, ptr %2, align 8
  call void @llvm.lifetime.end.p0(i64 8, ptr nonnull %2) #28
  call void @llvm.lifetime.start.p0(i64 8, ptr nonnull %2) #28
  store i64 0, ptr %2, align 8, !tbaa !38
  %14 = getelementptr inbounds nuw i8, ptr %10, i64 %12
  %15 = call noundef ptr @_ZN7rocksdb14GetVarint64PtrEPKcS1_Pm(ptr noundef nonnull %10, ptr noundef nonnull %14, ptr noundef nonnull %2)
  %.not = icmp eq ptr %15, null
  br i1 %.not, label %._crit_edge, label %_ZN7rocksdb11GetVarint64EPNS_5SliceEPm.exit

._crit_edge:                                      ; preds = %_ZN7rocksdb11GetVarint64EPNS_5SliceEPm.exit, %1
  %.02.lcssa = phi i64 [ 0, %1 ], [ %13, %_ZN7rocksdb11GetVarint64EPNS_5SliceEPm.exit ]
  call void @llvm.lifetime.end.p0(i64 8, ptr nonnull %2) #28
  ret i64 %.02.lcssa
}